target datalayout = "e-m:e-p270:32:32-p271:32:32-p272:64:64-i64:64-i128:128-f80:128-n8:16:32:64-S128"
target triple = "x86_64-pc-linux-gnu"

%class.RetTableEntry = type { i32, ptr, ptr }
%class.RetTable = type { ptr }

@g_assert_poison = external global ptr, align 8
@.str = private unnamed_addr constant [42 x i8] c"src/hotspot/share/oops/generateOopMap.cpp\00", align 1

; Function Attrs: mustprogress nounwind uwtable
define linkonce_odr hidden noundef ptr @_ZNK13RetTableEntry4nextEv(ptr noundef nonnull align 8 dereferenceable(24) %0) #1 comdat align 2 {
  %2 = alloca ptr, align 8
  store ptr %0, ptr %2, align 8
  %3 = load ptr, ptr %2, align 8
  %4 = getelementptr inbounds %class.RetTableEntry, ptr %3, i32 0, i32 2
  %5 = load ptr, ptr %4, align 8
  ret ptr %5
}

; Function Attrs: mustprogress nounwind uwtable
define linkonce_odr hidden noundef i32 @_ZNK13RetTableEntry10target_bciEv(ptr noundef nonnull align 8 dereferenceable(24) %0) #1 comdat align 2 {
  %2 = alloca ptr, align 8
  store ptr %0, ptr %2, align 8
  %3 = load ptr, ptr %2, align 8
  %4 = getelementptr inbounds %class.RetTableEntry, ptr %3, i32 0, i32 0
  %5 = load i32, ptr %4, align 8
  ret i32 %5
}

; Function Attrs: mustprogress nounwind uwtable
define hidden noundef ptr @_ZN8RetTable20find_jsrs_for_targetEi(ptr noundef nonnull align 8 dereferenceable(8) %0, i32 noundef %1) #1 align 2 {
  %3 = alloca ptr, align 8
  %4 = alloca ptr, align 8
  %5 = alloca i32, align 4
  %6 = alloca ptr, align 8
  store ptr %0, ptr %4, align 8
  store i32 %1, ptr %5, align 4
  %7 = load ptr, ptr %4, align 8
  %8 = getelementptr inbounds %class.RetTable, ptr %7, i32 0, i32 0
  %9 = load ptr, ptr %8, align 8
  store ptr %9, ptr %6, align 8
  br label %10

10:                                               ; preds = %20, %2
  %11 = load ptr, ptr %6, align 8
  %12 = icmp ne ptr %11, null
  br i1 %12, label %13, label %23

13:                                               ; preds = %10
  %14 = load ptr, ptr %6, align 8
  %15 = call noundef i32 @_ZNK13RetTableEntry10target_bciEv(ptr noundef nonnull align 8 dereferenceable(24) %14)
  %16 = load i32, ptr %5, align 4
  %17 = icmp eq i32 %15, %16
  br i1 %17, label %18, label %20

18:                                               ; preds = %13
  %19 = load ptr, ptr %6, align 8
  store ptr %19, ptr %3, align 8
  br label %27

20:                                               ; preds = %13
  %21 = load ptr, ptr %6, align 8
  %22 = call noundef ptr @_ZNK13RetTableEntry4nextEv(ptr noundef nonnull align 8 dereferenceable(24) %21)
  store ptr %22, ptr %6, align 8
  br label %10, !llvm.loop !10

23:                                               ; preds = %10
  br label %24

24:                                               ; preds = %23
  %25 = load ptr, ptr @g_assert_poison, align 8
  store i8 88, ptr %25, align 1
  call void @_Z28report_should_not_reach_herePKci(ptr noundef @.str, i32 noundef 282) #11
  unreachable

26:                                               ; No predecessors!
  store ptr null, ptr %3, align 8
  br label %27

27:                                               ; preds = %26, %18
  %28 = load ptr, ptr %3, align 8
  ret ptr %28
}