; Function Attrs: mustprogress nounwind uwtable
define hidden noundef nonnull ptr @_ZN8RetTable20find_jsrs_for_targetEi(ptr nocapture noundef nonnull readonly align 8 dereferenceable(8) %0, i32 noundef %1) local_unnamed_addr #0 align 2 {
  %.07 = load ptr, ptr %0, align 8
  %.not8 = icmp eq ptr %.07, null
  br i1 %.not8, label %._crit_edge, label %.lr.ph

.lr.ph:                                           ; preds = %2, %6
  %.09 = phi ptr [ %.0, %6 ], [ %.07, %2 ]
  %3 = load i32, ptr %.09, align 8
  %4 = icmp eq i32 %3, %1
  br i1 %4, label %5, label %6

5:                                                ; preds = %.lr.ph
  ret ptr %.09

6:                                                ; preds = %.lr.ph
  %7 = getelementptr inbounds i8, ptr %.09, i64 16
  %.0 = load ptr, ptr %7, align 8
  %.not = icmp eq ptr %.0, null
  br i1 %.not, label %._crit_edge, label %.lr.ph, !llvm.loop !10

._crit_edge:                                      ; preds = %6, %2
  %8 = load ptr, ptr @g_assert_poison, align 8
  store i8 88, ptr %8, align 1
  tail call void @_Z28report_should_not_reach_herePKci(ptr noundef nonnull @.str, i32 noundef 282) #19
  unreachable
}